target datalayout = "e-m:e-p270:32:32-p271:32:32-p272:64:64-i64:64-i128:128-f80:128-n8:16:32:64-S128"
target triple = "x86_64-pc-linux-gnu"

%"class.QMetaObject::Connection" = type { ptr }
%class.QObject = type { ptr, %class.QScopedPointer }
%class.QScopedPointer = type { ptr }
%class.MLRenderingZeroOrOneActionGroup = type { %class.QActionGroup, ptr }
%class.QActionGroup = type { %class.QObject }

@.str.4 = private unnamed_addr constant [18 x i8] c"1toggle(QAction*)\00", align 1
@_ZTV31MLRenderingZeroOrOneActionGroup = external unnamed_addr constant { [14 x ptr] }, align 8
@.str.42 = private unnamed_addr constant [21 x i8] c"2triggered(QAction*)\00", align 1

; Function Attrs: mustprogress nounwind uwtable
define linkonce_odr void @_ZN31MLRenderingZeroOrOneActionGroup12setExclusiveEb(ptr noundef nonnull align 8 dereferenceable(24) %0, i1 noundef zeroext %1) #4 comdat align 2 {
  %3 = alloca ptr, align 8
  %4 = alloca i8, align 1
  store ptr %0, ptr %3, align 8
  %5 = zext i1 %1 to i8
  store i8 %5, ptr %4, align 1
  ret void
}

; Function Attrs: mustprogress uwtable
define void @_ZN31MLRenderingZeroOrOneActionGroupC2EP7QObject(ptr noundef nonnull align 8 dereferenceable(24) %0, ptr noundef %1) unnamed_addr #5 align 2 personality ptr @__gxx_personality_v0 {
  %3 = alloca ptr, align 8
  %4 = alloca ptr, align 8
  %5 = alloca ptr, align 8
  %6 = alloca i32, align 4
  %7 = alloca %"class.QMetaObject::Connection", align 8
  store ptr %0, ptr %3, align 8
  store ptr %1, ptr %4, align 8
  %8 = load ptr, ptr %3, align 8
  %9 = load ptr, ptr %4, align 8
  call void @_ZN12QActionGroupC2EP7QObject(ptr noundef nonnull align 8 dereferenceable(16) %8, ptr noundef %9)
  store ptr getelementptr inbounds ({ [14 x ptr] }, ptr @_ZTV31MLRenderingZeroOrOneActionGroup, i32 0, i32 0, i32 2), ptr %8, align 8
  invoke void @_ZN31MLRenderingZeroOrOneActionGroup12setExclusiveEb(ptr noundef nonnull align 8 dereferenceable(24) %8, i1 noundef zeroext false)
          to label %10 unwind label %13

10:                                               ; preds = %2
  %11 = getelementptr inbounds %class.MLRenderingZeroOrOneActionGroup, ptr %8, i32 0, i32 1
  store ptr null, ptr %11, align 8
  invoke void @_ZN7QObject7connectEPKS_PKcS1_S3_N2Qt14ConnectionTypeE(ptr dead_on_unwind writable sret(%"class.QMetaObject::Connection") align 8 %7, ptr noundef %8, ptr noundef @.str.42, ptr noundef %8, ptr noundef @.str.4, i32 noundef 0)
          to label %12 unwind label %13

12:                                               ; preds = %10
  call void @_ZN11QMetaObject10ConnectionD1Ev(ptr noundef nonnull align 8 dereferenceable(8) %7) #3
  ret void

13:                                               ; preds = %10, %2
  %14 = landingpad { ptr, i32 }
          cleanup
  %15 = extractvalue { ptr, i32 } %14, 0
  store ptr %15, ptr %5, align 8
  %16 = extractvalue { ptr, i32 } %14, 1
  store i32 %16, ptr %6, align 4
  call void @_ZN12QActionGroupD2Ev(ptr noundef nonnull align 8 dereferenceable(16) %8) #3
  br label %17

17:                                               ; preds = %13
  %18 = load ptr, ptr %5, align 8
  %19 = load i32, ptr %6, align 4
  %20 = insertvalue { ptr, i32 } poison, ptr %18, 0
  %21 = insertvalue { ptr, i32 } %20, i32 %19, 1
  resume { ptr, i32 } %21
}